target datalayout = "e-m:e-p270:32:32-p271:32:32-p272:64:64-i64:64-i128:128-f80:128-n8:16:32:64-S128"
target triple = "x86_64-pc-linux-gnu"

; Function Attrs: mustprogress nounwind uwtable
define hidden noundef ptr @_ZN7nmethodnwEmib(i64 noundef %0, i32 noundef %1, i1 noundef zeroext %2) #1 align 2 {
  %4 = alloca ptr, align 8
  %5 = alloca i64, align 8
  %6 = alloca i32, align 4
  %7 = alloca i8, align 1
  %8 = alloca ptr, align 8
  store i64 %0, ptr %5, align 8
  store i32 %1, ptr %6, align 4
  %9 = zext i1 %2 to i8
  store i8 %9, ptr %7, align 1
  %10 = load i32, ptr %6, align 4
  %11 = call noundef ptr @_ZN9CodeCache8allocateEj12CodeBlobTypebS0_(i32 noundef %10, i32 noundef 0, i1 noundef zeroext true, i32 noundef 3)
  store ptr %11, ptr %8, align 8
  %12 = load ptr, ptr %8, align 8
  %13 = icmp ne ptr %12, null
  br i1 %13, label %17, label %14

14:                                               ; preds = %3
  %15 = load i8, ptr %7, align 1
  %16 = trunc i8 %15 to i1
  br i1 %16, label %19, label %17

17:                                               ; preds = %14, %3
  %18 = load ptr, ptr %8, align 8
  store ptr %18, ptr %4, align 8
  br label %22

19:                                               ; preds = %14
  %20 = load i32, ptr %6, align 4
  %21 = call noundef ptr @_ZN9CodeCache8allocateEj12CodeBlobTypebS0_(i32 noundef %20, i32 noundef 2, i1 noundef zeroext true, i32 noundef 3)
  store ptr %21, ptr %4, align 8
  br label %22

22:                                               ; preds = %19, %17
  %23 = load ptr, ptr %4, align 8
  ret ptr %23
}