; Function Attrs: mustprogress nounwind uwtable
define hidden noundef ptr @_ZN7nmethodnwEmib(i64 noundef %0, i32 noundef %1, i1 noundef zeroext %2) local_unnamed_addr #0 align 2 {
  %4 = tail call noundef ptr @_ZN9CodeCache8allocateEj12CodeBlobTypebS0_(i32 noundef %1, i32 noundef 0, i1 noundef zeroext true, i32 noundef 3) #23
  %.not = icmp eq ptr %4, null
  %brmerge.not = and i1 %.not, %2
  br i1 %brmerge.not, label %5, label %7

5:                                                ; preds = %3
  %6 = tail call noundef ptr @_ZN9CodeCache8allocateEj12CodeBlobTypebS0_(i32 noundef %1, i32 noundef 2, i1 noundef zeroext true, i32 noundef 3) #23
  br label %7

7:                                                ; preds = %3, %5
  %.0 = phi ptr [ %6, %5 ], [ %4, %3 ]
  ret ptr %.0
}